target datalayout = "e-m:e-p270:32:32-p271:32:32-p272:64:64-i64:64-i128:128-f80:128-n8:16:32:64-S128"
target triple = "x86_64-unknown-linux-gnu"

%struct.Node = type { i32, ptr, ptr, ptr, ptr, ptr, ptr, ptr, ptr, ptr, ptr, ptr, ptr, ptr, ptr, ptr, ptr, i8, ptr, ptr, ptr, ptr, ptr, ptr, i64, i64, ptr, ptr, ptr, ptr, ptr, ptr, ptr, i64, x86_fp80 }
%struct.Token = type { i32, ptr, i64, x86_fp80, ptr, i32, ptr, ptr, ptr, ptr, i32, i32, i8, i8, ptr, ptr }

@.str.76 = private unnamed_addr constant [2 x i8] c"=\00", align 1
@.str.79 = private unnamed_addr constant [3 x i8] c"+=\00", align 1
@.str.80 = private unnamed_addr constant [3 x i8] c"-=\00", align 1
@.str.81 = private unnamed_addr constant [3 x i8] c"*=\00", align 1
@.str.82 = private unnamed_addr constant [3 x i8] c"/=\00", align 1
@.str.83 = private unnamed_addr constant [3 x i8] c"%=\00", align 1
@.str.84 = private unnamed_addr constant [3 x i8] c"&=\00", align 1
@.str.85 = private unnamed_addr constant [3 x i8] c"|=\00", align 1
@.str.86 = private unnamed_addr constant [3 x i8] c"^=\00", align 1
@.str.87 = private unnamed_addr constant [4 x i8] c"<<=\00", align 1
@.str.88 = private unnamed_addr constant [4 x i8] c">>=\00", align 1

; Function Attrs: nounwind uwtable
define internal ptr @new_node(i32 noundef %kind, ptr noundef %tok) #0 {
entry:
  %kind.addr = alloca i32, align 4
  %tok.addr = alloca ptr, align 8
  %node = alloca ptr, align 8
  store i32 %kind, ptr %kind.addr, align 4
  store ptr %tok, ptr %tok.addr, align 8
  %call = call noalias ptr @calloc(i64 noundef 1, i64 noundef 288) #8
  store ptr %call, ptr %node, align 8
  %0 = load i32, ptr %kind.addr, align 4
  %1 = load ptr, ptr %node, align 8
  %kind1 = getelementptr inbounds %struct.Node, ptr %1, i32 0, i32 0
  store i32 %0, ptr %kind1, align 16
  %2 = load ptr, ptr %tok.addr, align 8
  %3 = load ptr, ptr %node, align 8
  %tok2 = getelementptr inbounds %struct.Node, ptr %3, i32 0, i32 3
  store ptr %2, ptr %tok2, align 8
  %4 = load ptr, ptr %node, align 8
  ret ptr %4
}

; Function Attrs: nounwind uwtable
define internal ptr @new_binary(i32 noundef %kind, ptr noundef %lhs, ptr noundef %rhs, ptr noundef %tok) #0 {
entry:
  %kind.addr = alloca i32, align 4
  %lhs.addr = alloca ptr, align 8
  %rhs.addr = alloca ptr, align 8
  %tok.addr = alloca ptr, align 8
  %node = alloca ptr, align 8
  store i32 %kind, ptr %kind.addr, align 4
  store ptr %lhs, ptr %lhs.addr, align 8
  store ptr %rhs, ptr %rhs.addr, align 8
  store ptr %tok, ptr %tok.addr, align 8
  %0 = load i32, ptr %kind.addr, align 4
  %1 = load ptr, ptr %tok.addr, align 8
  %call = call ptr @new_node(i32 noundef %0, ptr noundef %1)
  store ptr %call, ptr %node, align 8
  %2 = load ptr, ptr %lhs.addr, align 8
  %3 = load ptr, ptr %node, align 8
  %lhs1 = getelementptr inbounds %struct.Node, ptr %3, i32 0, i32 4
  store ptr %2, ptr %lhs1, align 16
  %4 = load ptr, ptr %rhs.addr, align 8
  %5 = load ptr, ptr %node, align 8
  %rhs2 = getelementptr inbounds %struct.Node, ptr %5, i32 0, i32 5
  store ptr %4, ptr %rhs2, align 8
  %6 = load ptr, ptr %node, align 8
  ret ptr %6
}

; Function Attrs: nounwind uwtable
define internal ptr @assign(ptr noundef %rest, ptr noundef %tok) #0 {
entry:
  %retval = alloca ptr, align 8
  %rest.addr = alloca ptr, align 8
  %tok.addr = alloca ptr, align 8
  %node = alloca ptr, align 8
  store ptr %rest, ptr %rest.addr, align 8
  store ptr %tok, ptr %tok.addr, align 8
  %0 = load ptr, ptr %tok.addr, align 8
  %call = call ptr @conditional(ptr noundef %tok.addr, ptr noundef %0)
  store ptr %call, ptr %node, align 8
  %1 = load ptr, ptr %tok.addr, align 8
  %call1 = call zeroext i1 @equal(ptr noundef %1, ptr noundef @.str.76)
  br i1 %call1, label %if.then, label %if.end

if.then:                                          ; preds = %entry
  %2 = load ptr, ptr %node, align 8
  %3 = load ptr, ptr %rest.addr, align 8
  %4 = load ptr, ptr %tok.addr, align 8
  %next = getelementptr inbounds %struct.Token, ptr %4, i32 0, i32 1
  %5 = load ptr, ptr %next, align 8
  %call2 = call ptr @assign(ptr noundef %3, ptr noundef %5)
  %6 = load ptr, ptr %tok.addr, align 8
  %call3 = call ptr @new_binary(i32 noundef 16, ptr noundef %2, ptr noundef %call2, ptr noundef %6)
  store ptr %call3, ptr %retval, align 8
  br label %return

if.end:                                           ; preds = %entry
  %7 = load ptr, ptr %tok.addr, align 8
  %call4 = call zeroext i1 @equal(ptr noundef %7, ptr noundef @.str.79)
  br i1 %call4, label %if.then5, label %if.end10

if.then5:                                         ; preds = %if.end
  %8 = load ptr, ptr %node, align 8
  %9 = load ptr, ptr %rest.addr, align 8
  %10 = load ptr, ptr %tok.addr, align 8
  %next6 = getelementptr inbounds %struct.Token, ptr %10, i32 0, i32 1
  %11 = load ptr, ptr %next6, align 8
  %call7 = call ptr @assign(ptr noundef %9, ptr noundef %11)
  %12 = load ptr, ptr %tok.addr, align 8
  %call8 = call ptr @new_add(ptr noundef %8, ptr noundef %call7, ptr noundef %12)
  %call9 = call ptr @to_assign(ptr noundef %call8)
  store ptr %call9, ptr %retval, align 8
  br label %return

if.end10:                                         ; preds = %if.end
  %13 = load ptr, ptr %tok.addr, align 8
  %call11 = call zeroext i1 @equal(ptr noundef %13, ptr noundef @.str.80)
  br i1 %call11, label %if.then12, label %if.end17

if.then12:                                        ; preds = %if.end10
  %14 = load ptr, ptr %node, align 8
  %15 = load ptr, ptr %rest.addr, align 8
  %16 = load ptr, ptr %tok.addr, align 8
  %next13 = getelementptr inbounds %struct.Token, ptr %16, i32 0, i32 1
  %17 = load ptr, ptr %next13, align 8
  %call14 = call ptr @assign(ptr noundef %15, ptr noundef %17)
  %18 = load ptr, ptr %tok.addr, align 8
  %call15 = call ptr @new_sub(ptr noundef %14, ptr noundef %call14, ptr noundef %18)
  %call16 = call ptr @to_assign(ptr noundef %call15)
  store ptr %call16, ptr %retval, align 8
  br label %return

if.end17:                                         ; preds = %if.end10
  %19 = load ptr, ptr %tok.addr, align 8
  %call18 = call zeroext i1 @equal(ptr noundef %19, ptr noundef @.str.81)
  br i1 %call18, label %if.then19, label %if.end24

if.then19:                                        ; preds = %if.end17
  %20 = load ptr, ptr %node, align 8
  %21 = load ptr, ptr %rest.addr, align 8
  %22 = load ptr, ptr %tok.addr, align 8
  %next20 = getelementptr inbounds %struct.Token, ptr %22, i32 0, i32 1
  %23 = load ptr, ptr %next20, align 8
  %call21 = call ptr @assign(ptr noundef %21, ptr noundef %23)
  %24 = load ptr, ptr %tok.addr, align 8
  %call22 = call ptr @new_binary(i32 noundef 3, ptr noundef %20, ptr noundef %call21, ptr noundef %24)
  %call23 = call ptr @to_assign(ptr noundef %call22)
  store ptr %call23, ptr %retval, align 8
  br label %return

if.end24:                                         ; preds = %if.end17
  %25 = load ptr, ptr %tok.addr, align 8
  %call25 = call zeroext i1 @equal(ptr noundef %25, ptr noundef @.str.82)
  br i1 %call25, label %if.then26, label %if.end31

if.then26:                                        ; preds = %if.end24
  %26 = load ptr, ptr %node, align 8
  %27 = load ptr, ptr %rest.addr, align 8
  %28 = load ptr, ptr %tok.addr, align 8
  %next27 = getelementptr inbounds %struct.Token, ptr %28, i32 0, i32 1
  %29 = load ptr, ptr %next27, align 8
  %call28 = call ptr @assign(ptr noundef %27, ptr noundef %29)
  %30 = load ptr, ptr %tok.addr, align 8
  %call29 = call ptr @new_binary(i32 noundef 4, ptr noundef %26, ptr noundef %call28, ptr noundef %30)
  %call30 = call ptr @to_assign(ptr noundef %call29)
  store ptr %call30, ptr %retval, align 8
  br label %return

if.end31:                                         ; preds = %if.end24
  %31 = load ptr, ptr %tok.addr, align 8
  %call32 = call zeroext i1 @equal(ptr noundef %31, ptr noundef @.str.83)
  br i1 %call32, label %if.then33, label %if.end38

if.then33:                                        ; preds = %if.end31
  %32 = load ptr, ptr %node, align 8
  %33 = load ptr, ptr %rest.addr, align 8
  %34 = load ptr, ptr %tok.addr, align 8
  %next34 = getelementptr inbounds %struct.Token, ptr %34, i32 0, i32 1
  %35 = load ptr, ptr %next34, align 8
  %call35 = call ptr @assign(ptr noundef %33, ptr noundef %35)
  %36 = load ptr, ptr %tok.addr, align 8
  %call36 = call ptr @new_binary(i32 noundef 6, ptr noundef %32, ptr noundef %call35, ptr noundef %36)
  %call37 = call ptr @to_assign(ptr noundef %call36)
  store ptr %call37, ptr %retval, align 8
  br label %return

if.end38:                                         ; preds = %if.end31
  %37 = load ptr, ptr %tok.addr, align 8
  %call39 = call zeroext i1 @equal(ptr noundef %37, ptr noundef @.str.84)
  br i1 %call39, label %if.then40, label %if.end45

if.then40:                                        ; preds = %if.end38
  %38 = load ptr, ptr %node, align 8
  %39 = load ptr, ptr %rest.addr, align 8
  %40 = load ptr, ptr %tok.addr, align 8
  %next41 = getelementptr inbounds %struct.Token, ptr %40, i32 0, i32 1
  %41 = load ptr, ptr %next41, align 8
  %call42 = call ptr @assign(ptr noundef %39, ptr noundef %41)
  %42 = load ptr, ptr %tok.addr, align 8
  %call43 = call ptr @new_binary(i32 noundef 7, ptr noundef %38, ptr noundef %call42, ptr noundef %42)
  %call44 = call ptr @to_assign(ptr noundef %call43)
  store ptr %call44, ptr %retval, align 8
  br label %return

if.end45:                                         ; preds = %if.end38
  %43 = load ptr, ptr %tok.addr, align 8
  %call46 = call zeroext i1 @equal(ptr noundef %43, ptr noundef @.str.85)
  br i1 %call46, label %if.then47, label %if.end52

if.then47:                                        ; preds = %if.end45
  %44 = load ptr, ptr %node, align 8
  %45 = load ptr, ptr %rest.addr, align 8
  %46 = load ptr, ptr %tok.addr, align 8
  %next48 = getelementptr inbounds %struct.Token, ptr %46, i32 0, i32 1
  %47 = load ptr, ptr %next48, align 8
  %call49 = call ptr @assign(ptr noundef %45, ptr noundef %47)
  %48 = load ptr, ptr %tok.addr, align 8
  %call50 = call ptr @new_binary(i32 noundef 8, ptr noundef %44, ptr noundef %call49, ptr noundef %48)
  %call51 = call ptr @to_assign(ptr noundef %call50)
  store ptr %call51, ptr %retval, align 8
  br label %return

if.end52:                                         ; preds = %if.end45
  %49 = load ptr, ptr %tok.addr, align 8
  %call53 = call zeroext i1 @equal(ptr noundef %49, ptr noundef @.str.86)
  br i1 %call53, label %if.then54, label %if.end59

if.then54:                                        ; preds = %if.end52
  %50 = load ptr, ptr %node, align 8
  %51 = load ptr, ptr %rest.addr, align 8
  %52 = load ptr, ptr %tok.addr, align 8
  %next55 = getelementptr inbounds %struct.Token, ptr %52, i32 0, i32 1
  %53 = load ptr, ptr %next55, align 8
  %call56 = call ptr @assign(ptr noundef %51, ptr noundef %53)
  %54 = load ptr, ptr %tok.addr, align 8
  %call57 = call ptr @new_binary(i32 noundef 9, ptr noundef %50, ptr noundef %call56, ptr noundef %54)
  %call58 = call ptr @to_assign(ptr noundef %call57)
  store ptr %call58, ptr %retval, align 8
  br label %return

if.end59:                                         ; preds = %if.end52
  %55 = load ptr, ptr %tok.addr, align 8
  %call60 = call zeroext i1 @equal(ptr noundef %55, ptr noundef @.str.87)
  br i1 %call60, label %if.then61, label %if.end66

if.then61:                                        ; preds = %if.end59
  %56 = load ptr, ptr %node, align 8
  %57 = load ptr, ptr %rest.addr, align 8
  %58 = load ptr, ptr %tok.addr, align 8
  %next62 = getelementptr inbounds %struct.Token, ptr %58, i32 0, i32 1
  %59 = load ptr, ptr %next62, align 8
  %call63 = call ptr @assign(ptr noundef %57, ptr noundef %59)
  %60 = load ptr, ptr %tok.addr, align 8
  %call64 = call ptr @new_binary(i32 noundef 10, ptr noundef %56, ptr noundef %call63, ptr noundef %60)
  %call65 = call ptr @to_assign(ptr noundef %call64)
  store ptr %call65, ptr %retval, align 8
  br label %return

if.end66:                                         ; preds = %if.end59
  %61 = load ptr, ptr %tok.addr, align 8
  %call67 = call zeroext i1 @equal(ptr noundef %61, ptr noundef @.str.88)
  br i1 %call67, label %if.then68, label %if.end73

if.then68:                                        ; preds = %if.end66
  %62 = load ptr, ptr %node, align 8
  %63 = load ptr, ptr %rest.addr, align 8
  %64 = load ptr, ptr %tok.addr, align 8
  %next69 = getelementptr inbounds %struct.Token, ptr %64, i32 0, i32 1
  %65 = load ptr, ptr %next69, align 8
  %call70 = call ptr @assign(ptr noundef %63, ptr noundef %65)
  %66 = load ptr, ptr %tok.addr, align 8
  %call71 = call ptr @new_binary(i32 noundef 11, ptr noundef %62, ptr noundef %call70, ptr noundef %66)
  %call72 = call ptr @to_assign(ptr noundef %call71)
  store ptr %call72, ptr %retval, align 8
  br label %return

if.end73:                                         ; preds = %if.end66
  %67 = load ptr, ptr %tok.addr, align 8
  %68 = load ptr, ptr %rest.addr, align 8
  store ptr %67, ptr %68, align 8
  %69 = load ptr, ptr %node, align 8
  store ptr %69, ptr %retval, align 8
  br label %return

return:                                           ; preds = %if.end73, %if.then68, %if.then61, %if.then54, %if.then47, %if.then40, %if.then33, %if.then26, %if.then19, %if.then12, %if.then5, %if.then
  %70 = load ptr, ptr %retval, align 8
  ret ptr %70
}