; Function Attrs: nounwind uwtable
define internal fastcc ptr @assign(ptr noundef %rest, ptr noundef %tok) unnamed_addr #0 {
entry:
  %tok.addr = alloca ptr, align 8
  store ptr %tok, ptr %tok.addr, align 8
  %call = call fastcc ptr @conditional(ptr noundef nonnull %tok.addr, ptr noundef %tok)
  %0 = load ptr, ptr %tok.addr, align 8
  %call1 = call zeroext i1 @equal(ptr noundef %0, ptr noundef nonnull @.str.76) #13
  %1 = load ptr, ptr %tok.addr, align 8
  br i1 %call1, label %if.then, label %if.end

if.then:                                          ; preds = %entry
  %next = getelementptr inbounds %struct.Token, ptr %1, i64 0, i32 1
  %2 = load ptr, ptr %next, align 8
  %call2 = call fastcc ptr @assign(ptr noundef %rest, ptr noundef %2)
  %3 = load ptr, ptr %tok.addr, align 8
  %call.i.i = call noalias noundef dereferenceable_or_null(288) ptr @calloc(i64 noundef 1, i64 noundef 288) #14
  store i32 16, ptr %call.i.i, align 16
  %tok2.i.i = getelementptr inbounds %struct.Node, ptr %call.i.i, i64 0, i32 3
  store ptr %3, ptr %tok2.i.i, align 8
  %lhs1.i = getelementptr inbounds %struct.Node, ptr %call.i.i, i64 0, i32 4
  store ptr %call, ptr %lhs1.i, align 16
  %rhs2.i = getelementptr inbounds %struct.Node, ptr %call.i.i, i64 0, i32 5
  store ptr %call2, ptr %rhs2.i, align 8
  br label %return

if.end:                                           ; preds = %entry
  %call4 = call zeroext i1 @equal(ptr noundef %1, ptr noundef nonnull @.str.79) #13
  %4 = load ptr, ptr %tok.addr, align 8
  br i1 %call4, label %if.then5, label %if.end10

if.then5:                                         ; preds = %if.end
  %next6 = getelementptr inbounds %struct.Token, ptr %4, i64 0, i32 1
  %5 = load ptr, ptr %next6, align 8
  %call7 = call fastcc ptr @assign(ptr noundef %rest, ptr noundef %5)
  %6 = load ptr, ptr %tok.addr, align 8
  %call8 = call fastcc ptr @new_add(ptr noundef %call, ptr noundef %call7, ptr noundef %6)
  %call9 = call fastcc ptr @to_assign(ptr noundef %call8)
  br label %return

if.end10:                                         ; preds = %if.end
  %call11 = call zeroext i1 @equal(ptr noundef %4, ptr noundef nonnull @.str.80) #13
  %7 = load ptr, ptr %tok.addr, align 8
  br i1 %call11, label %if.then12, label %if.end17

if.then12:                                        ; preds = %if.end10
  %next13 = getelementptr inbounds %struct.Token, ptr %7, i64 0, i32 1
  %8 = load ptr, ptr %next13, align 8
  %call14 = call fastcc ptr @assign(ptr noundef %rest, ptr noundef %8)
  %9 = load ptr, ptr %tok.addr, align 8
  %call15 = call fastcc ptr @new_sub(ptr noundef %call, ptr noundef %call14, ptr noundef %9)
  %call16 = call fastcc ptr @to_assign(ptr noundef %call15)
  br label %return

if.end17:                                         ; preds = %if.end10
  %call18 = call zeroext i1 @equal(ptr noundef %7, ptr noundef nonnull @.str.81) #13
  %10 = load ptr, ptr %tok.addr, align 8
  br i1 %call18, label %if.then19, label %if.end24

if.then19:                                        ; preds = %if.end17
  %next20 = getelementptr inbounds %struct.Token, ptr %10, i64 0, i32 1
  %11 = load ptr, ptr %next20, align 8
  %call21 = call fastcc ptr @assign(ptr noundef %rest, ptr noundef %11)
  %12 = load ptr, ptr %tok.addr, align 8
  %call.i.i23 = call noalias noundef dereferenceable_or_null(288) ptr @calloc(i64 noundef 1, i64 noundef 288) #14
  store i32 3, ptr %call.i.i23, align 16
  %tok2.i.i24 = getelementptr inbounds %struct.Node, ptr %call.i.i23, i64 0, i32 3
  store ptr %12, ptr %tok2.i.i24, align 8
  %lhs1.i25 = getelementptr inbounds %struct.Node, ptr %call.i.i23, i64 0, i32 4
  store ptr %call, ptr %lhs1.i25, align 16
  %rhs2.i26 = getelementptr inbounds %struct.Node, ptr %call.i.i23, i64 0, i32 5
  store ptr %call21, ptr %rhs2.i26, align 8
  %call23 = call fastcc ptr @to_assign(ptr noundef nonnull %call.i.i23)
  br label %return

if.end24:                                         ; preds = %if.end17
  %call25 = call zeroext i1 @equal(ptr noundef %10, ptr noundef nonnull @.str.82) #13
  %13 = load ptr, ptr %tok.addr, align 8
  br i1 %call25, label %if.then26, label %if.end31

if.then26:                                        ; preds = %if.end24
  %next27 = getelementptr inbounds %struct.Token, ptr %13, i64 0, i32 1
  %14 = load ptr, ptr %next27, align 8
  %call28 = call fastcc ptr @assign(ptr noundef %rest, ptr noundef %14)
  %15 = load ptr, ptr %tok.addr, align 8
  %call.i.i27 = call noalias noundef dereferenceable_or_null(288) ptr @calloc(i64 noundef 1, i64 noundef 288) #14
  store i32 4, ptr %call.i.i27, align 16
  %tok2.i.i28 = getelementptr inbounds %struct.Node, ptr %call.i.i27, i64 0, i32 3
  store ptr %15, ptr %tok2.i.i28, align 8
  %lhs1.i29 = getelementptr inbounds %struct.Node, ptr %call.i.i27, i64 0, i32 4
  store ptr %call, ptr %lhs1.i29, align 16
  %rhs2.i30 = getelementptr inbounds %struct.Node, ptr %call.i.i27, i64 0, i32 5
  store ptr %call28, ptr %rhs2.i30, align 8
  %call30 = call fastcc ptr @to_assign(ptr noundef nonnull %call.i.i27)
  br label %return

if.end31:                                         ; preds = %if.end24
  %call32 = call zeroext i1 @equal(ptr noundef %13, ptr noundef nonnull @.str.83) #13
  %16 = load ptr, ptr %tok.addr, align 8
  br i1 %call32, label %if.then33, label %if.end38

if.then33:                                        ; preds = %if.end31
  %next34 = getelementptr inbounds %struct.Token, ptr %16, i64 0, i32 1
  %17 = load ptr, ptr %next34, align 8
  %call35 = call fastcc ptr @assign(ptr noundef %rest, ptr noundef %17)
  %18 = load ptr, ptr %tok.addr, align 8
  %call.i.i31 = call noalias noundef dereferenceable_or_null(288) ptr @calloc(i64 noundef 1, i64 noundef 288) #14
  store i32 6, ptr %call.i.i31, align 16
  %tok2.i.i32 = getelementptr inbounds %struct.Node, ptr %call.i.i31, i64 0, i32 3
  store ptr %18, ptr %tok2.i.i32, align 8
  %lhs1.i33 = getelementptr inbounds %struct.Node, ptr %call.i.i31, i64 0, i32 4
  store ptr %call, ptr %lhs1.i33, align 16
  %rhs2.i34 = getelementptr inbounds %struct.Node, ptr %call.i.i31, i64 0, i32 5
  store ptr %call35, ptr %rhs2.i34, align 8
  %call37 = call fastcc ptr @to_assign(ptr noundef nonnull %call.i.i31)
  br label %return

if.end38:                                         ; preds = %if.end31
  %call39 = call zeroext i1 @equal(ptr noundef %16, ptr noundef nonnull @.str.84) #13
  %19 = load ptr, ptr %tok.addr, align 8
  br i1 %call39, label %if.then40, label %if.end45

if.then40:                                        ; preds = %if.end38
  %next41 = getelementptr inbounds %struct.Token, ptr %19, i64 0, i32 1
  %20 = load ptr, ptr %next41, align 8
  %call42 = call fastcc ptr @assign(ptr noundef %rest, ptr noundef %20)
  %21 = load ptr, ptr %tok.addr, align 8
  %call.i.i35 = call noalias noundef dereferenceable_or_null(288) ptr @calloc(i64 noundef 1, i64 noundef 288) #14
  store i32 7, ptr %call.i.i35, align 16
  %tok2.i.i36 = getelementptr inbounds %struct.Node, ptr %call.i.i35, i64 0, i32 3
  store ptr %21, ptr %tok2.i.i36, align 8
  %lhs1.i37 = getelementptr inbounds %struct.Node, ptr %call.i.i35, i64 0, i32 4
  store ptr %call, ptr %lhs1.i37, align 16
  %rhs2.i38 = getelementptr inbounds %struct.Node, ptr %call.i.i35, i64 0, i32 5
  store ptr %call42, ptr %rhs2.i38, align 8
  %call44 = call fastcc ptr @to_assign(ptr noundef nonnull %call.i.i35)
  br label %return

if.end45:                                         ; preds = %if.end38
  %call46 = call zeroext i1 @equal(ptr noundef %19, ptr noundef nonnull @.str.85) #13
  %22 = load ptr, ptr %tok.addr, align 8
  br i1 %call46, label %if.then47, label %if.end52

if.then47:                                        ; preds = %if.end45
  %next48 = getelementptr inbounds %struct.Token, ptr %22, i64 0, i32 1
  %23 = load ptr, ptr %next48, align 8
  %call49 = call fastcc ptr @assign(ptr noundef %rest, ptr noundef %23)
  %24 = load ptr, ptr %tok.addr, align 8
  %call.i.i39 = call noalias noundef dereferenceable_or_null(288) ptr @calloc(i64 noundef 1, i64 noundef 288) #14
  store i32 8, ptr %call.i.i39, align 16
  %tok2.i.i40 = getelementptr inbounds %struct.Node, ptr %call.i.i39, i64 0, i32 3
  store ptr %24, ptr %tok2.i.i40, align 8
  %lhs1.i41 = getelementptr inbounds %struct.Node, ptr %call.i.i39, i64 0, i32 4
  store ptr %call, ptr %lhs1.i41, align 16
  %rhs2.i42 = getelementptr inbounds %struct.Node, ptr %call.i.i39, i64 0, i32 5
  store ptr %call49, ptr %rhs2.i42, align 8
  %call51 = call fastcc ptr @to_assign(ptr noundef nonnull %call.i.i39)
  br label %return

if.end52:                                         ; preds = %if.end45
  %call53 = call zeroext i1 @equal(ptr noundef %22, ptr noundef nonnull @.str.86) #13
  %25 = load ptr, ptr %tok.addr, align 8
  br i1 %call53, label %if.then54, label %if.end59

if.then54:                                        ; preds = %if.end52
  %next55 = getelementptr inbounds %struct.Token, ptr %25, i64 0, i32 1
  %26 = load ptr, ptr %next55, align 8
  %call56 = call fastcc ptr @assign(ptr noundef %rest, ptr noundef %26)
  %27 = load ptr, ptr %tok.addr, align 8
  %call.i.i43 = call noalias noundef dereferenceable_or_null(288) ptr @calloc(i64 noundef 1, i64 noundef 288) #14
  store i32 9, ptr %call.i.i43, align 16
  %tok2.i.i44 = getelementptr inbounds %struct.Node, ptr %call.i.i43, i64 0, i32 3
  store ptr %27, ptr %tok2.i.i44, align 8
  %lhs1.i45 = getelementptr inbounds %struct.Node, ptr %call.i.i43, i64 0, i32 4
  store ptr %call, ptr %lhs1.i45, align 16
  %rhs2.i46 = getelementptr inbounds %struct.Node, ptr %call.i.i43, i64 0, i32 5
  store ptr %call56, ptr %rhs2.i46, align 8
  %call58 = call fastcc ptr @to_assign(ptr noundef nonnull %call.i.i43)
  br label %return

if.end59:                                         ; preds = %if.end52
  %call60 = call zeroext i1 @equal(ptr noundef %25, ptr noundef nonnull @.str.87) #13
  %28 = load ptr, ptr %tok.addr, align 8
  br i1 %call60, label %if.then61, label %if.end66

if.then61:                                        ; preds = %if.end59
  %next62 = getelementptr inbounds %struct.Token, ptr %28, i64 0, i32 1
  %29 = load ptr, ptr %next62, align 8
  %call63 = call fastcc ptr @assign(ptr noundef %rest, ptr noundef %29)
  %30 = load ptr, ptr %tok.addr, align 8
  %call.i.i47 = call noalias noundef dereferenceable_or_null(288) ptr @calloc(i64 noundef 1, i64 noundef 288) #14
  store i32 10, ptr %call.i.i47, align 16
  %tok2.i.i48 = getelementptr inbounds %struct.Node, ptr %call.i.i47, i64 0, i32 3
  store ptr %30, ptr %tok2.i.i48, align 8
  %lhs1.i49 = getelementptr inbounds %struct.Node, ptr %call.i.i47, i64 0, i32 4
  store ptr %call, ptr %lhs1.i49, align 16
  %rhs2.i50 = getelementptr inbounds %struct.Node, ptr %call.i.i47, i64 0, i32 5
  store ptr %call63, ptr %rhs2.i50, align 8
  %call65 = call fastcc ptr @to_assign(ptr noundef nonnull %call.i.i47)
  br label %return

if.end66:                                         ; preds = %if.end59
  %call67 = call zeroext i1 @equal(ptr noundef %28, ptr noundef nonnull @.str.88) #13
  %31 = load ptr, ptr %tok.addr, align 8
  br i1 %call67, label %if.then68, label %if.end73

if.then68:                                        ; preds = %if.end66
  %next69 = getelementptr inbounds %struct.Token, ptr %31, i64 0, i32 1
  %32 = load ptr, ptr %next69, align 8
  %call70 = call fastcc ptr @assign(ptr noundef %rest, ptr noundef %32)
  %33 = load ptr, ptr %tok.addr, align 8
  %call.i.i51 = call noalias noundef dereferenceable_or_null(288) ptr @calloc(i64 noundef 1, i64 noundef 288) #14
  store i32 11, ptr %call.i.i51, align 16
  %tok2.i.i52 = getelementptr inbounds %struct.Node, ptr %call.i.i51, i64 0, i32 3
  store ptr %33, ptr %tok2.i.i52, align 8
  %lhs1.i53 = getelementptr inbounds %struct.Node, ptr %call.i.i51, i64 0, i32 4
  store ptr %call, ptr %lhs1.i53, align 16
  %rhs2.i54 = getelementptr inbounds %struct.Node, ptr %call.i.i51, i64 0, i32 5
  store ptr %call70, ptr %rhs2.i54, align 8
  %call72 = call fastcc ptr @to_assign(ptr noundef nonnull %call.i.i51)
  br label %return

if.end73:                                         ; preds = %if.end66
  store ptr %31, ptr %rest, align 8
  br label %return

return:                                           ; preds = %if.end73, %if.then68, %if.then61, %if.then54, %if.then47, %if.then40, %if.then33, %if.then26, %if.then19, %if.then12, %if.then5, %if.then
  %retval.0 = phi ptr [ %call.i.i, %if.then ], [ %call9, %if.then5 ], [ %call16, %if.then12 ], [ %call23, %if.then19 ], [ %call30, %if.then26 ], [ %call37, %if.then33 ], [ %call44, %if.then40 ], [ %call51, %if.then47 ], [ %call58, %if.then54 ], [ %call65, %if.then61 ], [ %call72, %if.then68 ], [ %call, %if.end73 ]
  ret ptr %retval.0
}